; ModuleID = '7/638.c'
source_filename = "7/638.c"
target datalayout = "e-m:e-p270:32:32-p271:32:32-p272:64:64-i64:64-f80:128-n8:16:32:64-S128"
target triple = "x86_64-pc-linux-gnu"

@.str = private unnamed_addr constant [3 x i8] c"%s\00", align 1
@.str.1 = private unnamed_addr constant [3 x i8] c"%c\00", align 1

; Function Attrs: noinline nounwind uwtable
define dso_local i32 @main() #0 {
  %1 = alloca i32, align 4
  %2 = alloca [100 x i8], align 16
  %3 = alloca [100 x i8], align 16
  %4 = alloca [100 x i8], align 16
  %5 = alloca i32, align 4
  %6 = alloca i32, align 4
  %7 = alloca i32, align 4
  %8 = alloca i32, align 4
  %9 = alloca i32, align 4
  %10 = alloca i32, align 4
  %11 = alloca i32, align 4
  store i32 0, i32* %1, align 4
  %12 = bitcast [100 x i8]* %2 to i8*
  call void @llvm.memset.p0i8.i64(i8* align 16 %12, i8 0, i64 100, i1 false)
  %13 = bitcast [100 x i8]* %3 to i8*
  call void @llvm.memset.p0i8.i64(i8* align 16 %13, i8 0, i64 100, i1 false)
  %14 = bitcast [100 x i8]* %4 to i8*
  call void @llvm.memset.p0i8.i64(i8* align 16 %14, i8 0, i64 100, i1 false)
  %15 = getelementptr inbounds [100 x i8], [100 x i8]* %2, i64 0, i64 0
  %16 = call i32 (i8*, ...) bitcast (i32 (...)* @gets to i32 (i8*, ...)*)(i8* %15)
  %17 = getelementptr inbounds [100 x i8], [100 x i8]* %3, i64 0, i64 0
  %18 = call i32 (i8*, ...) bitcast (i32 (...)* @gets to i32 (i8*, ...)*)(i8* %17)
  %19 = getelementptr inbounds [100 x i8], [100 x i8]* %4, i64 0, i64 0
  %20 = call i32 (i8*, ...) bitcast (i32 (...)* @gets to i32 (i8*, ...)*)(i8* %19)
  %21 = getelementptr inbounds [100 x i8], [100 x i8]* %3, i64 0, i64 0
  %22 = call i64 @strlen(i8* %21) #4
  %23 = trunc i64 %22 to i32
  store i32 %23, i32* %5, align 4
  %24 = getelementptr inbounds [100 x i8], [100 x i8]* %2, i64 0, i64 0
  %25 = call i64 @strlen(i8* %24) #4
  %26 = trunc i64 %25 to i32
  store i32 %26, i32* %6, align 4
  store i32 0, i32* %7, align 4
  store i32 0, i32* %8, align 4
  br label %27

27:                                               ; preds = %79, %0
  %28 = load i32, i32* %8, align 4
  %29 = load i32, i32* %6, align 4
  %30 = load i32, i32* %5, align 4
  %31 = sub nsw i32 %29, %30
  %32 = icmp sle i32 %28, %31
  br i1 %32, label %33, label %82

33:                                               ; preds = %27
  store i32 0, i32* %7, align 4
  store i32 0, i32* %9, align 4
  br label %34

34:                                               ; preds = %54, %33
  %35 = load i32, i32* %9, align 4
  %36 = load i32, i32* %5, align 4
  %37 = icmp slt i32 %35, %36
  br i1 %37, label %38, label %57

38:                                               ; preds = %34
  %39 = load i32, i32* %8, align 4
  %40 = load i32, i32* %9, align 4
  %41 = add nsw i32 %39, %40
  %42 = sext i32 %41 to i64
  %43 = getelementptr inbounds [100 x i8], [100 x i8]* %2, i64 0, i64 %42
  %44 = load i8, i8* %43, align 1
  %45 = sext i8 %44 to i32
  %46 = load i32, i32* %9, align 4
  %47 = sext i32 %46 to i64
  %48 = getelementptr inbounds [100 x i8], [100 x i8]* %3, i64 0, i64 %47
  %49 = load i8, i8* %48, align 1
  %50 = sext i8 %49 to i32
  %51 = icmp ne i32 %45, %50
  br i1 %51, label %52, label %53

52:                                               ; preds = %38
  store i32 1, i32* %7, align 4
  br label %57

53:                                               ; preds = %38
  br label %54

54:                                               ; preds = %53
  %55 = load i32, i32* %9, align 4
  %56 = add nsw i32 %55, 1
  store i32 %56, i32* %9, align 4
  br label %34

57:                                               ; preds = %52, %34
  %58 = load i32, i32* %7, align 4
  %59 = icmp eq i32 %58, 0
  br i1 %59, label %60, label %78

60:                                               ; preds = %57
  %61 = load i32, i32* %8, align 4
  %62 = sext i32 %61 to i64
  %63 = getelementptr inbounds [100 x i8], [100 x i8]* %2, i64 0, i64 %62
  store i8 1, i8* %63, align 1
  store i32 1, i32* %10, align 4
  br label %64

64:                                               ; preds = %74, %60
  %65 = load i32, i32* %10, align 4
  %66 = load i32, i32* %5, align 4
  %67 = icmp slt i32 %65, %66
  br i1 %67, label %68, label %77

68:                                               ; preds = %64
  %69 = load i32, i32* %8, align 4
  %70 = load i32, i32* %10, align 4
  %71 = add nsw i32 %69, %70
  %72 = sext i32 %71 to i64
  %73 = getelementptr inbounds [100 x i8], [100 x i8]* %2, i64 0, i64 %72
  store i8 2, i8* %73, align 1
  br label %74

74:                                               ; preds = %68
  %75 = load i32, i32* %10, align 4
  %76 = add nsw i32 %75, 1
  store i32 %76, i32* %10, align 4
  br label %64

77:                                               ; preds = %64
  br label %82

78:                                               ; preds = %57
  br label %79

79:                                               ; preds = %78
  %80 = load i32, i32* %8, align 4
  %81 = add nsw i32 %80, 1
  store i32 %81, i32* %8, align 4
  br label %27

82:                                               ; preds = %77, %27
  store i32 0, i32* %11, align 4
  br label %83

83:                                               ; preds = %127, %82
  %84 = load i32, i32* %11, align 4
  %85 = load i32, i32* %6, align 4
  %86 = icmp slt i32 %84, %85
  br i1 %86, label %87, label %130

87:                                               ; preds = %83
  %88 = load i32, i32* %11, align 4
  %89 = sext i32 %88 to i64
  %90 = getelementptr inbounds [100 x i8], [100 x i8]* %2, i64 0, i64 %89
  %91 = load i8, i8* %90, align 1
  %92 = sext i8 %91 to i32
  %93 = icmp eq i32 %92, 1
  br i1 %93, label %94, label %97

94:                                               ; preds = %87
  %95 = getelementptr inbounds [100 x i8], [100 x i8]* %4, i64 0, i64 0
  %96 = call i32 (i8*, ...) @printf(i8* getelementptr inbounds ([3 x i8], [3 x i8]* @.str, i64 0, i64 0), i8* %95)
  br label %97

97:                                               ; preds = %94, %87
  %98 = load i32, i32* %11, align 4
  %99 = sext i32 %98 to i64
  %100 = getelementptr inbounds [100 x i8], [100 x i8]* %2, i64 0, i64 %99
  %101 = load i8, i8* %100, align 1
  %102 = sext i8 %101 to i32
  %103 = icmp eq i32 %102, 2
  br i1 %103, label %104, label %105

104:                                              ; preds = %97
  br label %105

105:                                              ; preds = %104, %97
  %106 = load i32, i32* %11, align 4
  %107 = sext i32 %106 to i64
  %108 = getelementptr inbounds [100 x i8], [100 x i8]* %2, i64 0, i64 %107
  %109 = load i8, i8* %108, align 1
  %110 = sext i8 %109 to i32
  %111 = icmp ne i32 %110, 2
  br i1 %111, label %112, label %126

112:                                              ; preds = %105
  %113 = load i32, i32* %11, align 4
  %114 = sext i32 %113 to i64
  %115 = getelementptr inbounds [100 x i8], [100 x i8]* %2, i64 0, i64 %114
  %116 = load i8, i8* %115, align 1
  %117 = sext i8 %116 to i32
  %118 = icmp ne i32 %117, 1
  br i1 %118, label %119, label %126

119:                                              ; preds = %112
  %120 = load i32, i32* %11, align 4
  %121 = sext i32 %120 to i64
  %122 = getelementptr inbounds [100 x i8], [100 x i8]* %2, i64 0, i64 %121
  %123 = load i8, i8* %122, align 1
  %124 = sext i8 %123 to i32
  %125 = call i32 (i8*, ...) @printf(i8* getelementptr inbounds ([3 x i8], [3 x i8]* @.str.1, i64 0, i64 0), i32 %124)
  br label %126

126:                                              ; preds = %119, %112, %105
  br label %127

127:                                              ; preds = %126
  %128 = load i32, i32* %11, align 4
  %129 = add nsw i32 %128, 1
  store i32 %129, i32* %11, align 4
  br label %83

130:                                              ; preds = %83
  %131 = load i32, i32* %1, align 4
  ret i32 %131
}

; Function Attrs: argmemonly nounwind willreturn
declare void @llvm.memset.p0i8.i64(i8* nocapture writeonly, i8, i64, i1 immarg) #1

declare dso_local i32 @gets(...) #2

; Function Attrs: nounwind readonly
declare dso_local i64 @strlen(i8*) #3

declare dso_local i32 @printf(i8*, ...) #2


!llvm.module.flags = !{!0}
!llvm.ident = !{!1}

!0 = !{i32 1, !"wchar_size", i32 4}
!1 = !{!"clang version 10.0.0-4ubuntu1 "}
